; Function Attrs: nounwind uwtable
define range(i32 0, 2) i32 @mz_zip_reader_extract_file_to_mem(ptr noundef captures(address_is_null) %0, ptr noundef captures(address_is_null) %1, ptr noundef %2, i64 noundef %3, i32 noundef %4) local_unnamed_addr #8 {
  %6 = alloca i32, align 4
  call void @llvm.lifetime.start.p0(i64 4, ptr nonnull %6) #34
  %7 = call i32 @mz_zip_reader_locate_file_v2(ptr noundef %0, ptr noundef %1, ptr noundef null, i32 noundef %4, ptr noundef nonnull %6)
  %.not.i = icmp eq i32 %7, 0
  br i1 %.not.i, label %mz_zip_reader_extract_file_to_mem_no_alloc.exit, label %8

8:                                                ; preds = %5
  %9 = load i32, ptr %6, align 4
  %10 = call fastcc i32 @mz_zip_reader_extract_to_mem_no_alloc1(ptr noundef %0, i32 noundef %9, ptr noundef %2, i64 noundef %3, i32 noundef %4, ptr noundef null, i64 noundef 0, ptr noundef null)
  br label %mz_zip_reader_extract_file_to_mem_no_alloc.exit

mz_zip_reader_extract_file_to_mem_no_alloc.exit:  ; preds = %5, %8
  %.0.i = phi i32 [ %10, %8 ], [ 0, %5 ]
  call void @llvm.lifetime.end.p0(i64 4, ptr nonnull %6) #34
  ret i32 %.0.i
}